; Function Attrs: mustprogress uwtable
define hidden void @_ZN2qe16i_solver_context7mk_atomEP4exprbR7obj_refIS1_11ast_managerE(ptr noundef nonnull align 8 dereferenceable(48) %this, ptr noundef %e, i1 noundef zeroext %p, ptr noundef nonnull align 8 dereferenceable(16) %result) local_unnamed_addr #3 align 2 {
entry:
  %vtable = load ptr, ptr %this, align 8
  %vfn = getelementptr inbounds i8, ptr %vtable, i64 16
  %0 = load ptr, ptr %vfn, align 8
  %call = tail call noundef nonnull align 8 dereferenceable(976) ptr %0(ptr noundef nonnull align 8 dereferenceable(48) %this)
  %m_plugins = getelementptr inbounds i8, ptr %this, i64 40
  br label %for.cond

for.cond:                                         ; preds = %for.inc, %entry
  %indvars.iv = phi i64 [ %indvars.iv.next, %for.inc ], [ 0, %entry ]
  %1 = load ptr, ptr %m_plugins, align 8
  %cmp.i = icmp eq ptr %1, null
  br i1 %cmp.i, label %_ZNK6vectorIPN2qe16qe_solver_pluginELb0EjE4sizeEv.exit, label %if.end.i

if.end.i:                                         ; preds = %for.cond
  %arrayidx.i = getelementptr inbounds i8, ptr %1, i64 -4
  %2 = load i32, ptr %arrayidx.i, align 4
  br label %_ZNK6vectorIPN2qe16qe_solver_pluginELb0EjE4sizeEv.exit

_ZNK6vectorIPN2qe16qe_solver_pluginELb0EjE4sizeEv.exit: ; preds = %for.cond, %if.end.i
  %retval.0.i = phi i32 [ %2, %if.end.i ], [ 0, %for.cond ]
  %3 = zext i32 %retval.0.i to i64
  %cmp = icmp ult i64 %indvars.iv, %3
  br i1 %cmp, label %for.body, label %for.end

for.body:                                         ; preds = %_ZNK6vectorIPN2qe16qe_solver_pluginELb0EjE4sizeEv.exit
  %arrayidx.i8 = getelementptr inbounds ptr, ptr %1, i64 %indvars.iv
  %4 = load ptr, ptr %arrayidx.i8, align 8
  %tobool.not = icmp eq ptr %4, null
  br i1 %tobool.not, label %for.inc, label %land.lhs.true

land.lhs.true:                                    ; preds = %for.body
  %vtable6 = load ptr, ptr %4, align 8
  %vfn7 = getelementptr inbounds i8, ptr %vtable6, i64 72
  %5 = load ptr, ptr %vfn7, align 8
  %call8 = tail call noundef zeroext i1 %5(ptr noundef nonnull align 8 dereferenceable(32) %4, ptr noundef %e, i1 noundef zeroext %p, ptr noundef nonnull align 8 dereferenceable(16) %result)
  br i1 %call8, label %return, label %for.inc

for.inc:                                          ; preds = %for.body, %land.lhs.true
  %indvars.iv.next = add nuw nsw i64 %indvars.iv, 1
  br label %for.cond, !llvm.loop !27

for.end:                                          ; preds = %_ZNK6vectorIPN2qe16qe_solver_pluginELb0EjE4sizeEv.exit
  br i1 %p, label %cond.end, label %cond.false

cond.false:                                       ; preds = %for.end
  %call10 = tail call noundef ptr @_Z6mk_notR11ast_managerP4expr(ptr noundef nonnull align 8 dereferenceable(976) %call, ptr noundef %e)
  br label %cond.end

cond.end:                                         ; preds = %for.end, %cond.false
  %cond = phi ptr [ %call10, %cond.false ], [ %e, %for.end ]
  %tobool.not.i = icmp eq ptr %cond, null
  br i1 %tobool.not.i, label %if.end.i9, label %_ZN11ast_manager7inc_refEP3ast.exit.i

_ZN11ast_manager7inc_refEP3ast.exit.i:            ; preds = %cond.end
  %m_ref_count.i.i.i = getelementptr inbounds i8, ptr %cond, i64 8
  %6 = load i32, ptr %m_ref_count.i.i.i, align 4
  %inc.i.i.i = add i32 %6, 1
  store i32 %inc.i.i.i, ptr %m_ref_count.i.i.i, align 4
  br label %if.end.i9

if.end.i9:                                        ; preds = %_ZN11ast_manager7inc_refEP3ast.exit.i, %cond.end
  %7 = load ptr, ptr %result, align 8
  %tobool.not.i3.i = icmp eq ptr %7, null
  br i1 %tobool.not.i3.i, label %_ZN7obj_refI4expr11ast_managerEaSEPS0_.exit, label %if.then.i.i.i

if.then.i.i.i:                                    ; preds = %if.end.i9
  %m_manager.i.i = getelementptr inbounds i8, ptr %result, i64 8
  %8 = load ptr, ptr %m_manager.i.i, align 8
  %m_ref_count.i.i.i.i = getelementptr inbounds i8, ptr %7, i64 8
  %9 = load i32, ptr %m_ref_count.i.i.i.i, align 4
  %dec.i.i.i.i = add i32 %9, -1
  store i32 %dec.i.i.i.i, ptr %m_ref_count.i.i.i.i, align 4
  %cmp.i.i.i = icmp eq i32 %dec.i.i.i.i, 0
  br i1 %cmp.i.i.i, label %if.then2.i.i.i, label %_ZN7obj_refI4expr11ast_managerEaSEPS0_.exit

if.then2.i.i.i:                                   ; preds = %if.then.i.i.i
  tail call void @_ZN11ast_manager11delete_nodeEP3ast(ptr noundef nonnull align 8 dereferenceable(976) %8, ptr noundef nonnull %7)
  br label %_ZN7obj_refI4expr11ast_managerEaSEPS0_.exit

_ZN7obj_refI4expr11ast_managerEaSEPS0_.exit:      ; preds = %if.end.i9, %if.then.i.i.i, %if.then2.i.i.i
  store ptr %cond, ptr %result, align 8
  br label %return

return:                                           ; preds = %land.lhs.true, %_ZN7obj_refI4expr11ast_managerEaSEPS0_.exit
  ret void
}